; Function Attrs: mustprogress nounwind uwtable
define hidden noundef i32 @_ZN5Block23compute_first_inst_sizeERjjP13PhaseRegAlloc(ptr nocapture noundef nonnull readonly align 8 dereferenceable(144) %0, ptr nocapture noundef nonnull align 4 dereferenceable(4) %1, i32 noundef %2, ptr noundef %3) local_unnamed_addr #0 align 2 {
  %5 = getelementptr inbounds i8, ptr %0, i64 40
  %6 = load i32, ptr %5, align 8
  %7 = icmp ne i32 %6, 0
  %8 = icmp ne i32 %2, 0
  %9 = and i1 %7, %8
  br i1 %9, label %_ZNK5Block8get_nodeEj.exit.lr.ph, label %._crit_edge

_ZNK5Block8get_nodeEj.exit.lr.ph:                 ; preds = %4
  %10 = getelementptr inbounds i8, ptr %0, i64 24
  %11 = getelementptr inbounds i8, ptr %0, i64 32
  %12 = zext i32 %6 to i64
  br label %_ZNK5Block8get_nodeEj.exit

_ZNK5Block8get_nodeEj.exit:                       ; preds = %_ZNK5Block8get_nodeEj.exit.lr.ph, %30
  %indvars.iv = phi i64 [ 0, %_ZNK5Block8get_nodeEj.exit.lr.ph ], [ %indvars.iv.next, %30 ]
  %.01521 = phi i32 [ %2, %_ZNK5Block8get_nodeEj.exit.lr.ph ], [ %.1, %30 ]
  %13 = load i32, ptr %10, align 8
  %14 = zext i32 %13 to i64
  %15 = icmp ult i64 %indvars.iv, %14
  tail call void @llvm.assume(i1 %15)
  %16 = load ptr, ptr %11, align 8
  %17 = getelementptr inbounds ptr, ptr %16, i64 %indvars.iv
  %18 = load ptr, ptr %17, align 8
  %19 = load ptr, ptr %18, align 8
  %20 = getelementptr inbounds i8, ptr %19, i64 168
  %21 = load ptr, ptr %20, align 8
  %22 = tail call noundef i32 %21(ptr noundef nonnull align 8 dereferenceable(52) %18, ptr noundef %3) #12
  %.not = icmp eq i32 %22, 0
  br i1 %.not, label %30, label %23

23:                                               ; preds = %_ZNK5Block8get_nodeEj.exit
  %24 = load i32, ptr %1, align 4
  %25 = add i32 %24, %22
  %26 = load i64, ptr @OptoLoopAlignment, align 8
  %27 = trunc i64 %26 to i32
  %.not19 = icmp ugt i32 %25, %27
  br i1 %.not19, label %._crit_edge, label %28

28:                                               ; preds = %23
  %29 = add i32 %.01521, -1
  store i32 %25, ptr %1, align 4
  br label %30

30:                                               ; preds = %_ZNK5Block8get_nodeEj.exit, %28
  %.1 = phi i32 [ %29, %28 ], [ %.01521, %_ZNK5Block8get_nodeEj.exit ]
  %indvars.iv.next = add nuw nsw i64 %indvars.iv, 1
  %31 = icmp ult i64 %indvars.iv.next, %12
  %32 = icmp ne i32 %.1, 0
  %33 = select i1 %31, i1 %32, i1 false
  br i1 %33, label %_ZNK5Block8get_nodeEj.exit, label %._crit_edge, !llvm.loop !9

._crit_edge:                                      ; preds = %23, %30, %4
  %.0 = phi i32 [ %2, %4 ], [ %.1, %30 ], [ 0, %23 ]
  ret i32 %.0
}